Microchip MPLAB XC8 Compiler V3.00

Linker command line:

-W-3 --edf=/opt/microchip/xc8/v3.00/pic/dat/20241204225717_en.msgs -cn \
  -h+dist/default/production/LCD_CON_I2C.X.production.sym \
  --cmf=dist/default/production/LCD_CON_I2C.X.production.cmf -z -Q16F18875 \
  -o/tmp/xcXHMfiFD/driver_tmp_3.o --defsym=__MPLAB_BUILD=1 \
  --fixupoverflow=error \
  -Mdist/default/production/LCD_CON_I2C.X.production.map \
  --md=/tmp/xcXHMfiFD/driver_tmp_0.dat -E1 -ver=XC8 Compiler \
  -ACODE=00h-07FFhx4 -ASTRCODE=00h-01FFFh -ASTRING=00h-0FFhx32 \
  -ACONST=00h-0FFhx32 -AENTRY=00h-0FFhx32 -ACOMMON=070h-07Fh \
  -ABANK0=020h-06Fh -ABANK1=0A0h-0EFh -ABANK2=0120h-016Fh \
  -ABANK3=01A0h-01EFh -ABANK4=0220h-026Fh -ABANK5=02A0h-02EFh \
  -ABANK6=0320h-036Fh -ABANK7=03A0h-03EFh -ABANK8=0420h-046Fh \
  -ABANK9=04A0h-04EFh -ABANK10=0520h-056Fh -ABANK11=05A0h-05EFh \
  -ABANK12=0620h-064Fh -ABIGRAM=02000h-023EFh \
  -ARAM=020h-06Fh,0A0h-0EFh,0120h-016Fh,01A0h-01EFh,0220h-026Fh,02A0h-02EFh,0320h-036Fh,03A0h-03EFh,0420h-046Fh,04A0h-04EFh,0520h-056Fh,05A0h-05EFh,0620h-064Fh \
  -AABS1=020h-07Fh,0A0h-0EFh,0120h-016Fh,01A0h-01EFh,0220h-026Fh,02A0h-02EFh,0320h-036Fh,03A0h-03EFh,0420h-046Fh,04A0h-04EFh,0520h-056Fh,05A0h-05EFh,0620h-064Fh \
  -ASFR0=00h-01Fh -ASFR1=080h-09Fh -ASFR2=0100h-011Fh -ASFR3=0180h-019Fh \
  -ASFR4=0200h-021Fh -ASFR5=0280h-029Fh -ASFR6=0300h-031Fh \
  -ASFR7=0380h-039Fh -ASFR8=0400h-041Fh -ASFR9=0480h-049Fh \
  -ASFR10=0500h-051Fh -ASFR11=0580h-059Fh -ASFR12=0600h-061Fh \
  -ASFR13=0680h-06EFh -ASFR14=0700h-076Fh -ASFR15=0780h-07EFh \
  -ASFR16=0800h-086Fh -ASFR17=0880h-08EFh -ASFR18=0900h-096Fh \
  -ASFR19=0980h-09EFh -ASFR20=0A00h-0A6Fh -ASFR21=0A80h-0AEFh \
  -ASFR22=0B00h-0B6Fh -ASFR23=0B80h-0BEFh -ASFR24=0C00h-0C6Fh \
  -ASFR25=0C80h-0CEFh -ASFR26=0D00h-0D6Fh -ASFR27=0D80h-0DEFh \
  -ASFR28=0E00h-0E6Fh -ASFR29=0E80h-0EEFh -ASFR30=0F00h-0F6Fh \
  -ASFR31=0F80h-0FEFh -ACONFIG=08007h-0800Bh -DCONFIG=2 \
  -AIDLOC=08000h-08003h -DIDLOC=2 -AEEDATA=00h-0FFh/0F000h \
  -peeprom_data=EEDATA -DEEDATA=2 -DCODE=2 -DSTRCODE=2 -DSTRING=2 -DCONST=2 \
  -DENTRY=2 -preset_vec=00h,intentry=04h,sivt,init,end_init -ppowerup=CODE \
  -pcinit=CODE -pfunctab=ENTRY -k /tmp/xcXHMfiFD/driver_tmp_20.o \
  dist/default/production/LCD_CON_I2C.X.production.o 

Object code version is 3.11

Machine type is 16F18875



                Name                               Link     Load   Length Selector   Space Scale
/tmp/xcXHMfiFD/driver_tmp_20.o
                end_init                             25       25        2        8       0
                reset_vec                             0        0        2        0       0
                config                             8007     8007        5        0       4
                idloc                              8000     8000        4        0       5
dist/default/production/LCD_CON_I2C.X.production.o
                cinit                                27       27       14        8       0
                intentry                              4        4       21        8       0
                config                             8007     8007        5        0       4
                idloc                              8000     8000        4        0       5
                text84                              F92      F92        3     1F24       0
                text83                              F95      F95        3     1F2A       0
                text82                              40A      40A       38        8       0
                text81                              7A9      7A9        B      B34       0
                text80                              774      774        F      B34       0
                text79                              73F      73F       13      B34       0
                text78                              72C      72C       13      B34       0
                text77                              719      719       13      B34       0
                text76                              706      706       13      B34       0
                text75                              6F3      6F3       13      B34       0
                text74                              646      646       1B      B34       0
                text73                              6E0      6E0       13      B34       0
                text72                              6CD      6CD       13      B34       0
                text71                              6BA      6BA       13      B34       0
                text70                              62B      62B       1B      B34       0
                text69                              F90      F90        2     1F20       0
                text68                                2        2        2        0       0
                text67                              F98      F98        3     1F30       0
                text66                              FB3      FB3        4     1F66       0
                text65                              F9B      F9B        3     1F36       0
                text64                              FB7      FB7        4     1F6E       0
                text63                              FBF      FBF        5     1F7E       0
                text62                              7F9      7F9        6      B34       0
                text61                              F9E      F9E        3     1F3C       0
                text60                              4CF      4CF       2D        8       0
                text59                              FC4      FC4        5     1F88       0
                text58                              7C6      7C6        9      B34       0
                text57                              7D7      7D7        8      B34       0
                text56                              1DD      1DD       53        8       0
                text55                              353      353       44        8       0
                text54                              7E6      7E6        7      B34       0
                text53                              FC9      FC9        5     1F92       0
                text52                              FCE      FCE        5     1F9C       0
                text51                              FD3      FD3        5     1FA6       0
                text50                              FD8      FD8        5     1FB0       0
                text49                              FDD      FDD        5     1FBA       0
                text48                              FE2      FE2        5     1FC4       0
                text47                              FE7      FE7        5     1FCE       0
                text46                              FEC      FEC        5     1FD8       0
                text45                              526      526       29        8       0
                text44                              FA1      FA1        3     1F42       0
                text43                              54F      54F       28        8       0
                text42                              FBB      FBB        4     1F76       0
                text40                              690      690       16      B34       0
                text39                              661      661       18      B34       0
                text38                              7BD      7BD        9      B34       0
                text37                              7B4      7B4        9      B34       0
                text36                              30E      30E       45        8       0
                text35                              7CF      7CF        8      B34       0
                text34                              764      764       10      B34       0
                text33                              FF1      FF1        5     1FE2       0
                text32                              FA4      FA4        3     1F48       0
                text31                              FA7      FA7        3     1F4E       0
                text30                              FAA      FAA        3     1F54       0
                text29                              610      610       1B      B34       0
                text28                              FAD      FAD        3     1F5A       0
                text27                              5D6      5D6       1E      B34       0
                text26                              FF6      FF6        5     1FEC       0
                text25                              FB0      FB0        3     1F60       0
                text24                              790      790        D      B34       0
                text23                              7F3      7F3        6      B34       0
                text22                              2C8      2C8       46        8       0
                text21                              3D1      3D1       39        8       0
                text20                              79D      79D        C      B34       0
                text19                              679      679       17      B34       0
                text18                              4A2      4A2       2D        8       0
                text17                              6A6      6A6       14      B34       0
                text16                              442      442       32        8       0
                text15                              FFB      FFB        5     1FF6       0
                text14                              783      783        D      B34       0
                text13                              7DF      7DF        7      B34       0
                text12                              397      397       3A        8       0
                text11                              4FC      4FC       2A        8       0
                text10                              474      474       2E        8       0
                text9                               5F4      5F4       1C      B34       0
                text8                               128      128       5C        8       0
                text7                               230      230       52        8       0
                text6                               752      752       12      B34       0
                text5                               7FF      7FF        1      B34       0
                text4                               184      184       59        8       0
                text3                                3B       3B       ED        8       0
                text2                               5B8      5B8       1E      B34       0
                text1                               59A      59A       1E      B34       0
                maintext                            282      282       46        8       0
                cstackBANK0                          20       20       48       20       1
                cstackCOMMON                         70       70        E       70       1
                clrtext                             7ED      7ED        6      B34       0
                bssBANK1                             A0       A0       40       A0       1
                bssBANK0                             68       68        7       20       1
                stringtext1                         577      577       23      AEE       0

TOTAL           Name                               Link     Load   Length     Space
        CLASS   CODE           
                end_init                             25       25        2         0
                cinit                                27       27       14         0
                intentry                              4        4       21         0
                reset_vec                             0        0        2         0
                text84                              F92      F92        3         0
                text83                              F95      F95        3         0
                text82                              40A      40A       38         0
                text81                              7A9      7A9        B         0
                text80                              774      774        F         0
                text79                              73F      73F       13         0
                text78                              72C      72C       13         0
                text77                              719      719       13         0
                text76                              706      706       13         0
                text75                              6F3      6F3       13         0
                text74                              646      646       1B         0
                text73                              6E0      6E0       13         0
                text72                              6CD      6CD       13         0
                text71                              6BA      6BA       13         0
                text70                              62B      62B       1B         0
                text69                              F90      F90        2         0
                text68                                2        2        2         0
                text67                              F98      F98        3         0
                text66                              FB3      FB3        4         0
                text65                              F9B      F9B        3         0
                text64                              FB7      FB7        4         0
                text63                              FBF      FBF        5         0
                text62                              7F9      7F9        6         0
                text61                              F9E      F9E        3         0
                text60                              4CF      4CF       2D         0
                text59                              FC4      FC4        5         0
                text58                              7C6      7C6        9         0
                text57                              7D7      7D7        8         0
                text56                              1DD      1DD       53         0
                text55                              353      353       44         0
                text54                              7E6      7E6        7         0
                text53                              FC9      FC9        5         0
                text52                              FCE      FCE        5         0
                text51                              FD3      FD3        5         0
                text50                              FD8      FD8        5         0
                text49                              FDD      FDD        5         0
                text48                              FE2      FE2        5         0
                text47                              FE7      FE7        5         0
                text46                              FEC      FEC        5         0
                text45                              526      526       29         0
                text44                              FA1      FA1        3         0
                text43                              54F      54F       28         0
                text42                              FBB      FBB        4         0
                text40                              690      690       16         0
                text39                              661      661       18         0
                text38                              7BD      7BD        9         0
                text37                              7B4      7B4        9         0
                text36                              30E      30E       45         0
                text35                              7CF      7CF        8         0
                text34                              764      764       10         0
                text33                              FF1      FF1        5         0
                text32                              FA4      FA4        3         0
                text31                              FA7      FA7        3         0
                text30                              FAA      FAA        3         0
                text29                              610      610       1B         0
                text28                              FAD      FAD        3         0
                text27                              5D6      5D6       1E         0
                text26                              FF6      FF6        5         0
                text25                              FB0      FB0        3         0
                text24                              790      790        D         0
                text23                              7F3      7F3        6         0
                text22                              2C8      2C8       46         0
                text21                              3D1      3D1       39         0
                text20                              79D      79D        C         0
                text19                              679      679       17         0
                text18                              4A2      4A2       2D         0
                text17                              6A6      6A6       14         0
                text16                              442      442       32         0
                text15                              FFB      FFB        5         0
                text14                              783      783        D         0
                text13                              7DF      7DF        7         0
                text12                              397      397       3A         0
                text11                              4FC      4FC       2A         0
                text10                              474      474       2E         0
                text9                               5F4      5F4       1C         0
                text8                               128      128       5C         0
                text7                               230      230       52         0
                text6                               752      752       12         0
                text5                               7FF      7FF        1         0
                text4                               184      184       59         0
                text3                                3B       3B       ED         0
                text2                               5B8      5B8       1E         0
                text1                               59A      59A       1E         0
                maintext                            282      282       46         0
                clrtext                             7ED      7ED        6         0

        CLASS   STRCODE        
                stringtext1                         577      577       23         0

        CLASS   STRING         

        CLASS   CONST          

        CLASS   ENTRY          

        CLASS   COMMON         
                cstackCOMMON                         70       70        E         1

        CLASS   BANK0          
                cstackBANK0                          20       20       48         1
                bssBANK0                             68       68        7         1

        CLASS   BANK1          
                bssBANK1                             A0       A0       40         1

        CLASS   BANK2          

        CLASS   BANK3          

        CLASS   BANK4          

        CLASS   BANK5          

        CLASS   BANK6          

        CLASS   BANK7          

        CLASS   BANK8          

        CLASS   BANK9          

        CLASS   BANK10         

        CLASS   BANK11         

        CLASS   BANK12         

        CLASS   BIGRAM         

        CLASS   RAM            

        CLASS   ABS1           
                abs_s1                               7E       7E        2         1

        CLASS   SFR0           

        CLASS   SFR1           

        CLASS   SFR2           

        CLASS   SFR3           

        CLASS   SFR4           

        CLASS   SFR5           

        CLASS   SFR6           

        CLASS   SFR7           

        CLASS   SFR8           

        CLASS   SFR9           

        CLASS   SFR10          

        CLASS   SFR11          

        CLASS   SFR12          

        CLASS   SFR13          

        CLASS   SFR14          

        CLASS   SFR15          

        CLASS   SFR16          

        CLASS   SFR17          

        CLASS   SFR18          

        CLASS   SFR19          

        CLASS   SFR20          

        CLASS   SFR21          

        CLASS   SFR22          

        CLASS   SFR23          

        CLASS   SFR24          

        CLASS   SFR25          

        CLASS   SFR26          

        CLASS   SFR27          

        CLASS   SFR28          

        CLASS   SFR29          

        CLASS   SFR30          

        CLASS   SFR31          

        CLASS   CONFIG         
                config                             8007     8007        5         4

        CLASS   IDLOC          
                idloc                              8000     8000        4         5

        CLASS   EEDATA         

        CLASS   BANK31         

        CLASS   BANK30         

        CLASS   BANK29         

        CLASS   BANK28         

        CLASS   BANK27         

        CLASS   BANK26         

        CLASS   BANK25         

        CLASS   BANK24         

        CLASS   BANK23         

        CLASS   BANK22         

        CLASS   BANK21         

        CLASS   BANK20         

        CLASS   BANK19         

        CLASS   BANK18         

        CLASS   BANK17         

        CLASS   BANK16         

        CLASS   BANK15         

        CLASS   BANK14         

        CLASS   BANK13         

        CLASS   HEAP           

        CLASS   STACK          



SEGMENTS        Name                           Load    Length   Top    Selector   Space  Class     Delta

                text52                         000FCE  000005  000FD3      1F9C       0  CODE        2
                text51                         000FD3  000005  000FD8      1FA6       0  CODE        2
                text53                         000FC9  000005  000FCE      1F92       0  CODE        2
                text30                         000FAA  000003  000FAD      1F54       0  CODE        2
                text28                         000FAD  000003  000FB0      1F5A       0  CODE        2
                text31                         000FA7  000003  000FAA      1F4E       0  CODE        2
                text44                         000FA1  000003  000FA4      1F42       0  CODE        2
                text32                         000FA4  000003  000FA7      1F48       0  CODE        2
                text25                         000FB0  000003  000FB3      1F60       0  CODE        2
                text63                         000FBF  000005  000FC4      1F7E       0  CODE        2
                text59                         000FC4  000005  000FC9      1F88       0  CODE        2
                text42                         000FBB  000004  000FBF      1F76       0  CODE        2
                text66                         000FB3  000004  000FB7      1F66       0  CODE        2
                text64                         000FB7  000004  000FBB      1F6E       0  CODE        2
                text50                         000FD8  000005  000FDD      1FB0       0  CODE        2
                text48                         000FE2  000005  000FE7      1FC4       0  CODE        2
                reset_vec                      000000  000004  000004         0       0  CODE        2
                text47                         000FE7  000005  000FEC      1FCE       0  CODE        2
                text49                         000FDD  000005  000FE2      1FBA       0  CODE        2
                text67                         000F98  000003  000F9B      1F30       0  CODE        2
                text83                         000F95  000003  000F98      1F2A       0  CODE        2
                text69                         000F90  000002  000F92      1F20       0  CODE        2
                text84                         000F92  000003  000F95      1F24       0  CODE        2
                text61                         000F9E  000003  000FA1      1F3C       0  CODE        2
                text65                         000F9B  000003  000F9E      1F36       0  CODE        2
                bssBANK1                       0000A0  000040  0000E0        A0       1  BANK1       1
                intentry                       000004  000573  000577         8       0  CODE        2
                cstackBANK0                    000020  00004F  00006F        20       1  BANK0       1
                cstackCOMMON                   000070  00000E  00007E        70       1  COMMON      1
                text26                         000FF6  000005  000FFB      1FEC       0  CODE        2
                text15                         000FFB  000005  001000      1FF6       0  CODE        2
                text1                          00059A  000266  000800       B34       0  CODE        2
                text46                         000FEC  000005  000FF1      1FD8       0  CODE        2
                text33                         000FF1  000005  000FF6      1FE2       0  CODE        2
                stringtext1                    000577  000023  00059A       AEE       0  STRCODE     2


UNUSED ADDRESS RANGES

        Name                Unused          Largest block    Delta
        BANK0            0006F-0006F               1           1
        BANK1            000E0-000EF              10           1
        BANK10           00520-0056F              50           1
        BANK11           005A0-005EF              50           1
        BANK12           00620-0064F              30           1
        BANK2            00120-0016F              50           1
        BANK3            001A0-001EF              50           1
        BANK4            00220-0026F              50           1
        BANK5            002A0-002EF              50           1
        BANK6            00320-0036F              50           1
        BANK7            003A0-003EF              50           1
        BANK8            00420-0046F              50           1
        BANK9            004A0-004EF              50           1
        BIGRAM           02000-023EF             3F0           1
        CODE             00800-00F8F             790           2
                         01000-01FFF             800
        CONST            00800-00F8F             100           2
                         01000-01FFF             100
        EEDATA           0F000-0F0FF             100           2
        ENTRY            00800-00F8F             100           2
                         01000-01FFF             100
        RAM              0006F-0006F               1           1
                         000E0-000EF              10
                         00120-0016F              50
                         001A0-001EF              50
                         00220-0026F              50
                         002A0-002EF              50
                         00320-0036F              50
                         003A0-003EF              50
                         00420-0046F              50
                         004A0-004EF              50
                         00520-0056F              50
                         005A0-005EF              50
                         00620-0064F              30
        SFR0             00000-0001F              20           1
        SFR1             00080-0009F              20           1
        SFR10            00500-0051F              20           1
        SFR11            00580-0059F              20           1
        SFR12            00600-0061F              20           1
        SFR13            00680-006EF              70           1
        SFR14            00700-0076F              70           1
        SFR15            00780-007EF              70           1
        SFR16            00800-0086F              70           1
        SFR17            00880-008EF              70           1
        SFR18            00900-0096F              70           1
        SFR19            00980-009EF              70           1
        SFR2             00100-0011F              20           1
        SFR20            00A00-00A6F              70           1
        SFR21            00A80-00AEF              70           1
        SFR22            00B00-00B6F              70           1
        SFR23            00B80-00BEF              70           1
        SFR24            00C00-00C6F              70           1
        SFR25            00C80-00CEF              70           1
        SFR26            00D00-00D6F              70           1
        SFR27            00D80-00DEF              70           1
        SFR28            00E00-00E6F              70           1
        SFR29            00E80-00EEF              70           1
        SFR3             00180-0019F              20           1
        SFR30            00F00-00F6F              70           1
        SFR31            00F80-00FEF              70           1
        SFR4             00200-0021F              20           1
        SFR5             00280-0029F              20           1
        SFR6             00300-0031F              20           1
        SFR7             00380-0039F              20           1
        SFR8             00400-0041F              20           1
        SFR9             00480-0049F              20           1
        STRCODE          00800-00F8F             790           2
                         01000-01FFF            1000
        STRING           00800-00F8F             100           2
                         01000-01FFF             100

                                  Symbol Table

?_ADCC_GetSingleConversion                                cstackBANK0  00020
?___awdiv                                                 cstackBANK0  00020
?___awmod                                                 cstackBANK0  00020
?_abs                                                     cstackBANK0  00026
?_sprintf                                                 cstackBANK0  00042
?_vfprintf                                                cstackBANK0  0003A
ADCC_GetSingleConversion@channel                          cstackBANK0  00022
I2C1_CallbackReturnReset@funPtr                           cstackCOMMON 00079
I2C1_Close@returnValue                                    cstackBANK0  00020
I2C1_MasterOperation@read                                 cstackBANK0  00020
I2C1_MasterOperation@returnValue                          cstackBANK0  00021
I2C1_MasterSendTxData@data                                cstackCOMMON 00070
I2C1_Open@address                                         cstackBANK0  00022
I2C1_Open@returnValue                                     cstackBANK0  00023
I2C1_SetAddressNackCallback@cb                            cstackBANK0  00026
I2C1_SetAddressNackCallback@ptr                           cstackBANK0  00028
I2C1_SetBuffer@buffer                                     cstackBANK0  00020
I2C1_SetBuffer@bufferSize                                 cstackBANK0  00022
I2C1_SetCallback@cb                                       cstackBANK0  00020
I2C1_SetCallback@idx                                      cstackBANK0  00025
I2C1_SetCallback@ptr                                      cstackBANK0  00022
I2C1_SetDataCompleteCallback@cb                           cstackCOMMON 00076
I2C1_SetDataCompleteCallback@ptr                          cstackCOMMON 00078
I2C1_SetInterruptHandler@InterruptHandler                 cstackBANK0  00020
_ADACCH                                                   (abs)        00091
_ADACCL                                                   (abs)        00090
_ADACQ                                                    (abs)        0009D
_ADACT                                                    (abs)        00099
_ADCAP                                                    (abs)        0009B
_ADCC_GetSingleConversion                                 text40       00690
_ADCC_Initialize                                          text39       00661
_ADCLK                                                    (abs)        00098
_ADCNT                                                    (abs)        0010C
_ADCON0                                                   (abs)        00093
_ADCON0bits                                               (abs)        00093
_ADCON1                                                   (abs)        00094
_ADCON1bits                                               (abs)        00094
_ADCON2                                                   (abs)        00095
_ADCON2bits                                               (abs)        00095
_ADCON3                                                   (abs)        00096
_ADCON3bits                                               (abs)        00096
_ADERRH                                                   (abs)        00117
_ADERRL                                                   (abs)        00116
_ADFLTRH                                                  (abs)        00115
_ADFLTRL                                                  (abs)        00114
_ADLTHH                                                   (abs)        0010F
_ADLTHL                                                   (abs)        0010E
_ADPCH                                                    (abs)        0009E
_ADPRE                                                    (abs)        0009C
_ADPREVH                                                  (abs)        0008F
_ADPREVL                                                  (abs)        0008E
_ADREF                                                    (abs)        0009A
_ADRESH                                                   (abs)        0008D
_ADRESL                                                   (abs)        0008C
_ADRPT                                                    (abs)        0010D
_ADSTAT                                                   (abs)        00097
_ADSTATbits                                               (abs)        00097
_ADSTPTH                                                  (abs)        00113
_ADSTPTL                                                  (abs)        00112
_ADUTHH                                                   (abs)        00111
_ADUTHL                                                   (abs)        00110
_ANSELA                                                   (abs)        00F38
_ANSELB                                                   (abs)        00F43
_ANSELC                                                   (abs)        00F4E
_ANSELD                                                   (abs)        00F59
_ANSELE                                                   (abs)        00F64
_I2C1_CallbackReturnReset                                 text68       00002
_I2C1_CallbackReturnStop                                  text69       00F90
_I2C1_Close                                               text29       00610
_I2C1_DO_ADDRESS_NACK                                     text45       00526
_I2C1_DO_IDLE                                             text59       00FC4
_I2C1_DO_RCEN                                             text54       007E6
_I2C1_DO_RESET                                            text46       00FEC
_I2C1_DO_RX                                               text55       00353
_I2C1_DO_RX_ACK                                           text49       00FDD
_I2C1_DO_RX_NACK_RESTART                                  text47       00FE7
_I2C1_DO_RX_NACK_STOP                                     text48       00FE2
_I2C1_DO_SEND_ADR_READ                                    text58       007C6
_I2C1_DO_SEND_ADR_WRITE                                   text57       007D7
_I2C1_DO_SEND_RESTART                                     text51       00FD3
_I2C1_DO_SEND_RESTART_READ                                text53       00FC9
_I2C1_DO_SEND_RESTART_WRITE                               text52       00FCE
_I2C1_DO_SEND_STOP                                        text50       00FD8
_I2C1_DO_TX                                               text56       001DD
_I2C1_DO_TX_EMPTY                                         text60       004CF
_I2C1_Initialize                                          text38       007BD
_I2C1_MasterClearIrq                                      text32       00FA4
_I2C1_MasterClose                                         text31       00FA7
_I2C1_MasterDisableIrq                                    text30       00FAA
_I2C1_MasterEnableIrq                                     text25       00FB0
_I2C1_MasterEnableRestart                                 text84       00F92
_I2C1_MasterFsm                                           text43       0054F
_I2C1_MasterGetRxData                                     text65       00F9B
_I2C1_MasterIsNack                                        text62       007F9
_I2C1_MasterIsr                                           text42       00FBB
_I2C1_MasterOpen                                          text24       00790
_I2C1_MasterOperation                                     text27       005D6
_I2C1_MasterSendAck                                       text64       00FB7
_I2C1_MasterSendNack                                      text66       00FB3
_I2C1_MasterSendTxData                                    text63       00FBF
_I2C1_MasterSetIrq                                        text61       00F9E
_I2C1_MasterStart                                         text28       00FAD
_I2C1_MasterStartRx                                       text67       00F98
_I2C1_MasterStop                                          text83       00F95
_I2C1_MasterWrite                                         text26       00FF6
_I2C1_Open                                                text22       002C8
_I2C1_SetAddressNackCallback                              text20       0079D
_I2C1_SetBuffer                                           text19       00679
_I2C1_SetCallback                                         text21       003D1
_I2C1_SetDataCompleteCallback                             text81       007A9
_I2C1_SetInterruptHandler                                 text23       007F3
_I2C1_Status                                              bssBANK1     000C0
_INLVLA                                                   (abs)        00F3C
_INLVLB                                                   (abs)        00F47
_INLVLC                                                   (abs)        00F52
_INLVLD                                                   (abs)        00F5D
_INLVLE                                                   (abs)        00F68
_INTCONbits                                               (abs)        0000B
_INTERRUPT_InterruptManager                               intentry     00004
_LATA                                                     (abs)        00016
_LATB                                                     (abs)        00017
_LATC                                                     (abs)        00018
_LATD                                                     (abs)        00019
_LATE                                                     (abs)        0001A
_MSSP1_InterruptHandler                                   bssBANK0     0006A
_ODCONA                                                   (abs)        00F3A
_ODCONB                                                   (abs)        00F45
_ODCONC                                                   (abs)        00F50
_ODCOND                                                   (abs)        00F5B
_ODCONE                                                   (abs)        00F66
_OSCCON1                                                  (abs)        0088D
_OSCCON3                                                  (abs)        0088F
_OSCEN                                                    (abs)        00891
_OSCFRQ                                                   (abs)        00893
_OSCILLATOR_Initialize                                    text37       007B4
_OSCTUNE                                                  (abs)        00892
_PIE3bits                                                 (abs)        00719
_PIN_MANAGER_Initialize                                   text36       0030E
_PIR3bits                                                 (abs)        0070F
_PMD0                                                     (abs)        00796
_PMD1                                                     (abs)        00797
_PMD2                                                     (abs)        00798
_PMD3                                                     (abs)        00799
_PMD4                                                     (abs)        0079A
_PMD5                                                     (abs)        0079B
_PMD_Initialize                                           text35       007CF
_RC3PPS                                                   (abs)        00F23
_RC4PPS                                                   (abs)        00F24
_SLRCONA                                                  (abs)        00F3B
_SLRCONB                                                  (abs)        00F46
_SLRCONC                                                  (abs)        00F51
_SLRCOND                                                  (abs)        00F5C
_SLRCONE                                                  (abs)        00F67
_SSP1ADD                                                  (abs)        0018D
_SSP1BUF                                                  (abs)        0018C
_SSP1CLKPPS                                               (abs)        00EC5
_SSP1CON1                                                 (abs)        00190
_SSP1CON1bits                                             (abs)        00190
_SSP1CON2                                                 (abs)        00191
_SSP1CON2bits                                             (abs)        00191
_SSP1DATPPS                                               (abs)        00EC6
_SSP1STAT                                                 (abs)        0018F
_SSP1STATbits                                             (abs)        0018F
_SYSTEM_Initialize                                        text34       00764
_TRISA                                                    (abs)        00011
_TRISB                                                    (abs)        00012
_TRISC                                                    (abs)        00013
_TRISD                                                    (abs)        00014
_TRISE                                                    (abs)        00015
_WPUA                                                     (abs)        00F39
_WPUB                                                     (abs)        00F44
_WPUC                                                     (abs)        00F4F
_WPUD                                                     (abs)        00F5A
_WPUE                                                     (abs)        00F65
__H__absolute__                                           __absolute__ 00000
__Habs1                                                   abs1         00000
__Hbank0                                                  bank0        00000
__Hbank1                                                  bank1        00000
__Hbank10                                                 bank10       00000
__Hbank11                                                 bank11       00000
__Hbank12                                                 bank12       00000
__Hbank13                                                 bank13       00000
__Hbank14                                                 bank14       00000
__Hbank15                                                 bank15       00000
__Hbank16                                                 bank16       00000
__Hbank17                                                 bank17       00000
__Hbank18                                                 bank18       00000
__Hbank19                                                 bank19       00000
__Hbank2                                                  bank2        00000
__Hbank20                                                 bank20       00000
__Hbank21                                                 bank21       00000
__Hbank22                                                 bank22       00000
__Hbank23                                                 bank23       00000
__Hbank24                                                 bank24       00000
__Hbank25                                                 bank25       00000
__Hbank26                                                 bank26       00000
__Hbank27                                                 bank27       00000
__Hbank28                                                 bank28       00000
__Hbank29                                                 bank29       00000
__Hbank3                                                  bank3        00000
__Hbank30                                                 bank30       00000
__Hbank31                                                 bank31       00000
__Hbank4                                                  bank4        00000
__Hbank5                                                  bank5        00000
__Hbank6                                                  bank6        00000
__Hbank7                                                  bank7        00000
__Hbank8                                                  bank8        00000
__Hbank9                                                  bank9        00000
__Hbigram                                                 bigram       00000
__HbssBANK0                                               bssBANK0     00000
__HbssBANK1                                               bssBANK1     00000
__Hcinit                                                  cinit        0003B
__Hclrtext                                                clrtext      00000
__Hcode                                                   code         00000
__Hcommon                                                 common       00000
__Hconfig                                                 config       0800C
__HcstackBANK0                                            cstackBANK0  00000
__HcstackCOMMON                                           cstackCOMMON 00000
__Heeprom_data                                            eeprom_data  00000
__Hend_init                                               end_init     00027
__Hfunctab                                                functab      00000
__Hheap                                                   heap         00000
__Hidloc                                                  idloc        08004
__Hinit                                                   init         00025
__Hintentry                                               intentry     00025
__Hmaintext                                               maintext     00000
__Hpowerup                                                powerup      00000
__Hram                                                    ram          00000
__Hreset_vec                                              reset_vec    00002
__Hsfr0                                                   sfr0         00000
__Hsfr1                                                   sfr1         00000
__Hsfr10                                                  sfr10        00000
__Hsfr11                                                  sfr11        00000
__Hsfr12                                                  sfr12        00000
__Hsfr13                                                  sfr13        00000
__Hsfr14                                                  sfr14        00000
__Hsfr15                                                  sfr15        00000
__Hsfr16                                                  sfr16        00000
__Hsfr17                                                  sfr17        00000
__Hsfr18                                                  sfr18        00000
__Hsfr19                                                  sfr19        00000
__Hsfr2                                                   sfr2         00000
__Hsfr20                                                  sfr20        00000
__Hsfr21                                                  sfr21        00000
__Hsfr22                                                  sfr22        00000
__Hsfr23                                                  sfr23        00000
__Hsfr24                                                  sfr24        00000
__Hsfr25                                                  sfr25        00000
__Hsfr26                                                  sfr26        00000
__Hsfr27                                                  sfr27        00000
__Hsfr28                                                  sfr28        00000
__Hsfr29                                                  sfr29        00000
__Hsfr3                                                   sfr3         00000
__Hsfr30                                                  sfr30        00000
__Hsfr31                                                  sfr31        00000
__Hsfr4                                                   sfr4         00000
__Hsfr5                                                   sfr5         00000
__Hsfr6                                                   sfr6         00000
__Hsfr7                                                   sfr7         00000
__Hsfr8                                                   sfr8         00000
__Hsfr9                                                   sfr9         00000
__Hsivt                                                   sivt         00025
__Hspace_0                                                (abs)        01000
__Hspace_1                                                (abs)        000E0
__Hspace_2                                                (abs)        00000
__Hspace_3                                                (abs)        00000
__Hspace_4                                                (abs)        10013
__Hstack                                                  stack        00000
__Hstrings                                                strings      00000
__Hstringtext1                                            stringtext1  00000
__Hstringtext2                                            stringtext2  00000
__Htext                                                   text         00000
__L__absolute__                                           __absolute__ 00000
__Labs1                                                   abs1         00000
__Lbank0                                                  bank0        00000
__Lbank1                                                  bank1        00000
__Lbank10                                                 bank10       00000
__Lbank11                                                 bank11       00000
__Lbank12                                                 bank12       00000
__Lbank13                                                 bank13       00000
__Lbank14                                                 bank14       00000
__Lbank15                                                 bank15       00000
__Lbank16                                                 bank16       00000
__Lbank17                                                 bank17       00000
__Lbank18                                                 bank18       00000
__Lbank19                                                 bank19       00000
__Lbank2                                                  bank2        00000
__Lbank20                                                 bank20       00000
__Lbank21                                                 bank21       00000
__Lbank22                                                 bank22       00000
__Lbank23                                                 bank23       00000
__Lbank24                                                 bank24       00000
__Lbank25                                                 bank25       00000
__Lbank26                                                 bank26       00000
__Lbank27                                                 bank27       00000
__Lbank28                                                 bank28       00000
__Lbank29                                                 bank29       00000
__Lbank3                                                  bank3        00000
__Lbank30                                                 bank30       00000
__Lbank31                                                 bank31       00000
__Lbank4                                                  bank4        00000
__Lbank5                                                  bank5        00000
__Lbank6                                                  bank6        00000
__Lbank7                                                  bank7        00000
__Lbank8                                                  bank8        00000
__Lbank9                                                  bank9        00000
__Lbigram                                                 bigram       00000
__LbssBANK0                                               bssBANK0     00000
__LbssBANK1                                               bssBANK1     00000
__Lcinit                                                  cinit        00027
__Lclrtext                                                clrtext      00000
__Lcode                                                   code         00000
__Lcommon                                                 common       00000
__Lconfig                                                 config       00000
__LcstackBANK0                                            cstackBANK0  00000
__LcstackCOMMON                                           cstackCOMMON 00000
__Leeprom_data                                            eeprom_data  00000
__Lend_init                                               end_init     00025
__Lfunctab                                                functab      00000
__Lheap                                                   heap         00000
__Lidloc                                                  idloc        00000
__Linit                                                   init         00025
__Lintentry                                               intentry     00004
__Lmaintext                                               maintext     00000
__Lpowerup                                                powerup      00000
__Lram                                                    ram          00000
__Lreset_vec                                              reset_vec    00000
__Lsfr0                                                   sfr0         00000
__Lsfr1                                                   sfr1         00000
__Lsfr10                                                  sfr10        00000
__Lsfr11                                                  sfr11        00000
__Lsfr12                                                  sfr12        00000
__Lsfr13                                                  sfr13        00000
__Lsfr14                                                  sfr14        00000
__Lsfr15                                                  sfr15        00000
__Lsfr16                                                  sfr16        00000
__Lsfr17                                                  sfr17        00000
__Lsfr18                                                  sfr18        00000
__Lsfr19                                                  sfr19        00000
__Lsfr2                                                   sfr2         00000
__Lsfr20                                                  sfr20        00000
__Lsfr21                                                  sfr21        00000
__Lsfr22                                                  sfr22        00000
__Lsfr23                                                  sfr23        00000
__Lsfr24                                                  sfr24        00000
__Lsfr25                                                  sfr25        00000
__Lsfr26                                                  sfr26        00000
__Lsfr27                                                  sfr27        00000
__Lsfr28                                                  sfr28        00000
__Lsfr29                                                  sfr29        00000
__Lsfr3                                                   sfr3         00000
__Lsfr30                                                  sfr30        00000
__Lsfr31                                                  sfr31        00000
__Lsfr4                                                   sfr4         00000
__Lsfr5                                                   sfr5         00000
__Lsfr6                                                   sfr6         00000
__Lsfr7                                                   sfr7         00000
__Lsfr8                                                   sfr8         00000
__Lsfr9                                                   sfr9         00000
__Lsivt                                                   sivt         00025
__Lspace_0                                                (abs)        00000
__Lspace_1                                                (abs)        00000
__Lspace_2                                                (abs)        00000
__Lspace_3                                                (abs)        00000
__Lspace_4                                                (abs)        00000
__Lstack                                                  stack        00000
__Lstrings                                                strings      00000
__Lstringtext1                                            stringtext1  00000
__Lstringtext2                                            stringtext2  00000
__Ltext                                                   text         00000
__S0                                                      (abs)        01000
__S1                                                      (abs)        000E0
__S3                                                      (abs)        00000
___awdiv                                                  text8        00128
___awdiv@counter                                          cstackBANK0  00024
___awdiv@dividend                                         cstackBANK0  00022
___awdiv@divisor                                          cstackBANK0  00020
___awdiv@quotient                                         cstackBANK0  00026
___awdiv@sign                                             cstackBANK0  00025
___awmod                                                  text7        00230
___awmod@counter                                          cstackBANK0  00024
___awmod@dividend                                         cstackBANK0  00022
___awmod@divisor                                          cstackBANK0  00020
___awmod@sign                                             cstackBANK0  00025
___heap_hi                                                (abs)        00000
___heap_lo                                                (abs)        00000
___int_sp                                                 stack        00000
___int_stack_hi                                           stack        00000
___int_stack_lo                                           stack        00000
___latbits                                                (abs)        00002
___sp                                                     stack        00000
___stack_hi                                               stack        00000
___stack_lo                                               stack        00000
___stackhi                                                (abs)        00000
___stacklo                                                (abs)        00000
__end_of_ADCC_GetSingleConversion                         text40       006A6
__end_of_ADCC_Initialize                                  text39       00679
__end_of_I2C1_CallbackReturnReset                         text68       00004
__end_of_I2C1_CallbackReturnStop                          text69       00F92
__end_of_I2C1_Close                                       text29       0062B
__end_of_I2C1_DO_ADDRESS_NACK                             text45       0054F
__end_of_I2C1_DO_IDLE                                     text59       00FC9
__end_of_I2C1_DO_RCEN                                     text54       007ED
__end_of_I2C1_DO_RESET                                    text46       00FF1
__end_of_I2C1_DO_RX                                       text55       00397
__end_of_I2C1_DO_RX_ACK                                   text49       00FE2
__end_of_I2C1_DO_RX_NACK_RESTART                          text47       00FEC
__end_of_I2C1_DO_RX_NACK_STOP                             text48       00FE7
__end_of_I2C1_DO_SEND_ADR_READ                            text58       007CF
__end_of_I2C1_DO_SEND_ADR_WRITE                           text57       007DF
__end_of_I2C1_DO_SEND_RESTART                             text51       00FD8
__end_of_I2C1_DO_SEND_RESTART_READ                        text53       00FCE
__end_of_I2C1_DO_SEND_RESTART_WRITE                       text52       00FD3
__end_of_I2C1_DO_SEND_STOP                                text50       00FDD
__end_of_I2C1_DO_TX                                       text56       00230
__end_of_I2C1_DO_TX_EMPTY                                 text60       004FC
__end_of_I2C1_Initialize                                  text38       007C6
__end_of_I2C1_MasterClearIrq                              text32       00FA7
__end_of_I2C1_MasterClose                                 text31       00FAA
__end_of_I2C1_MasterDisableIrq                            text30       00FAD
__end_of_I2C1_MasterEnableIrq                             text25       00FB3
__end_of_I2C1_MasterEnableRestart                         text84       00F95
__end_of_I2C1_MasterFsm                                   text43       00577
__end_of_I2C1_MasterGetRxData                             text65       00F9E
__end_of_I2C1_MasterIsNack                                text62       007FF
__end_of_I2C1_MasterIsr                                   text42       00FBF
__end_of_I2C1_MasterOpen                                  text24       0079D
__end_of_I2C1_MasterOperation                             text27       005F4
__end_of_I2C1_MasterSendAck                               text64       00FBB
__end_of_I2C1_MasterSendNack                              text66       00FB7
__end_of_I2C1_MasterSendTxData                            text63       00FC4
__end_of_I2C1_MasterSetIrq                                text61       00FA1
__end_of_I2C1_MasterStart                                 text28       00FB0
__end_of_I2C1_MasterStartRx                               text67       00F9B
__end_of_I2C1_MasterStop                                  text83       00F98
__end_of_I2C1_MasterWrite                                 text26       00FFB
__end_of_I2C1_Open                                        text22       0030E
__end_of_I2C1_SetAddressNackCallback                      text20       007A9
__end_of_I2C1_SetBuffer                                   text19       00690
__end_of_I2C1_SetCallback                                 text21       0040A
__end_of_I2C1_SetDataCompleteCallback                     text81       007B4
__end_of_I2C1_SetInterruptHandler                         text23       007F9
__end_of_INTERRUPT_InterruptManager                       intentry     00025
__end_of_OSCILLATOR_Initialize                            text37       007BD
__end_of_PIN_MANAGER_Initialize                           text36       00353
__end_of_PMD_Initialize                                   text35       007D7
__end_of_SYSTEM_Initialize                                text34       00774
__end_of___awdiv                                          text8        00184
__end_of___awmod                                          text7        00282
__end_of__initialization                                  cinit        00037
__end_of_abs                                              text6        00764
__end_of_fputc                                            text4        001DD
__end_of_i2c1_fsmStateTable                               stringtext1  00597
__end_of_i2c_writeNBytes                                  text18       004CF
__end_of_lcd_busy                                         text33       00FF6
__end_of_lcd_command                                      text16       00474
__end_of_lcd_delete                                       text15       01000
__end_of_lcd_go                                           text11       00526
__end_of_lcd_lighting_ac                                  text13       007E6
__end_of_lcd_start                                        text12       003D1
__end_of_lcd_writeletter                                  text10       004A2
__end_of_lcd_writemessage                                 text9        00610
__end_of_main                                             maintext     002C8
__end_of_pcf8574_write                                    text14       00790
__end_of_pcf8574_write_wEnable                            text17       006BA
__end_of_putch                                            text5        00800
__end_of_rd1RegCompleteHandler                            text77       0072C
__end_of_rd1RegCompleteHandler@i2c1_master_example$F146   text73       006F3
__end_of_rd2RegCompleteHandler                            text76       00719
__end_of_rd2RegCompleteHandler@i2c1_master_example$F157   text72       006E0
__end_of_rdBlkRegCompleteHandler                          text74       00661
__end_of_rdBlkRegCompleteHandler@i2c1_master_example$F180 text70       00646
__end_of_sprintf                                          text1        005B8
__end_of_vfpfcnvrt                                        text3        00128
__end_of_vfprintf                                         text2        005D6
__end_of_wr1RegCompleteHandler                            text78       0073F
__end_of_wr1RegCompleteHandler@i2c1_master_example$F163   text71       006CD
__end_of_wr2RegCompleteHandler                            text75       00706
__end_of_wr2RegCompleteHandler@i2c1_master_example$F169   text79       00752
__end_ofi1_I2C1_MasterClearIrq                            text44       00FA4
__end_ofi1_I2C1_SetBuffer                                 text80       00783
__end_ofi1_I2C1_SetCallback                               text82       00442
__initialization                                          cinit        00027
__pbssBANK0                                               bssBANK0     00068
__pbssBANK1                                               bssBANK1     000A0
__pcstackBANK0                                            cstackBANK0  00020
__pcstackCOMMON                                           cstackCOMMON 00070
__pintentry                                               intentry     00004
__pmaintext                                               maintext     00282
__pstringtext1                                            stringtext1  00577
__pstringtext2                                            stringtext2  00000
__ptext1                                                  text1        0059A
__ptext10                                                 text10       00474
__ptext11                                                 text11       004FC
__ptext12                                                 text12       00397
__ptext13                                                 text13       007DF
__ptext14                                                 text14       00783
__ptext15                                                 text15       00FFB
__ptext16                                                 text16       00442
__ptext17                                                 text17       006A6
__ptext18                                                 text18       004A2
__ptext19                                                 text19       00679
__ptext2                                                  text2        005B8
__ptext20                                                 text20       0079D
__ptext21                                                 text21       003D1
__ptext22                                                 text22       002C8
__ptext23                                                 text23       007F3
__ptext24                                                 text24       00790
__ptext25                                                 text25       00FB0
__ptext26                                                 text26       00FF6
__ptext27                                                 text27       005D6
__ptext28                                                 text28       00FAD
__ptext29                                                 text29       00610
__ptext3                                                  text3        0003B
__ptext30                                                 text30       00FAA
__ptext31                                                 text31       00FA7
__ptext32                                                 text32       00FA4
__ptext33                                                 text33       00FF1
__ptext34                                                 text34       00764
__ptext35                                                 text35       007CF
__ptext36                                                 text36       0030E
__ptext37                                                 text37       007B4
__ptext38                                                 text38       007BD
__ptext39                                                 text39       00661
__ptext4                                                  text4        00184
__ptext40                                                 text40       00690
__ptext42                                                 text42       00FBB
__ptext43                                                 text43       0054F
__ptext44                                                 text44       00FA1
__ptext45                                                 text45       00526
__ptext46                                                 text46       00FEC
__ptext47                                                 text47       00FE7
__ptext48                                                 text48       00FE2
__ptext49                                                 text49       00FDD
__ptext5                                                  text5        007FF
__ptext50                                                 text50       00FD8
__ptext51                                                 text51       00FD3
__ptext52                                                 text52       00FCE
__ptext53                                                 text53       00FC9
__ptext54                                                 text54       007E6
__ptext55                                                 text55       00353
__ptext56                                                 text56       001DD
__ptext57                                                 text57       007D7
__ptext58                                                 text58       007C6
__ptext59                                                 text59       00FC4
__ptext6                                                  text6        00752
__ptext60                                                 text60       004CF
__ptext61                                                 text61       00F9E
__ptext62                                                 text62       007F9
__ptext63                                                 text63       00FBF
__ptext64                                                 text64       00FB7
__ptext65                                                 text65       00F9B
__ptext66                                                 text66       00FB3
__ptext67                                                 text67       00F98
__ptext68                                                 text68       00002
__ptext69                                                 text69       00F90
__ptext7                                                  text7        00230
__ptext70                                                 text70       0062B
__ptext71                                                 text71       006BA
__ptext72                                                 text72       006CD
__ptext73                                                 text73       006E0
__ptext74                                                 text74       00646
__ptext75                                                 text75       006F3
__ptext76                                                 text76       00706
__ptext77                                                 text77       00719
__ptext78                                                 text78       0072C
__ptext79                                                 text79       0073F
__ptext8                                                  text8        00128
__ptext80                                                 text80       00774
__ptext81                                                 text81       007A9
__ptext82                                                 text82       0040A
__ptext83                                                 text83       00F95
__ptext84                                                 text84       00F92
__ptext9                                                  text9        005F4
_abs                                                      text6        00752
_dbuf                                                     bssBANK1     000A0
_display_cursor_blink                                     bssBANK0     0006D
_flags                                                    bssBANK0     0006C
_fputc                                                    text4        00184
_i2c1_fsmStateTable                                       stringtext1  00577
_i2c_writeNBytes                                          text18       004A2
_lcd_busy                                                 text33       00FF1
_lcd_command                                              text16       00442
_lcd_delete                                               text15       00FFB
_lcd_go                                                   text11       004FC
_lcd_lighting_ac                                          text13       007DF
_lcd_start                                                text12       00397
_lcd_writeletter                                          text10       00474
_lcd_writemessage                                         text9        005F4
_main                                                     maintext     00282
_pcf8574_write                                            text14       00783
_pcf8574_write_wEnable                                    text17       006A6
_pcf_port                                                 bssBANK0     0006E
_prec                                                     bssBANK0     00068
_putch                                                    text5        007FF
_rd1RegCompleteHandler                                    text77       00719
_rd1RegCompleteHandler@i2c1_master_example$F146           text73       006E0
_rd2RegCompleteHandler                                    text76       00706
_rd2RegCompleteHandler@i2c1_master_example$F157           text72       006CD
_rdBlkRegCompleteHandler                                  text74       00646
_rdBlkRegCompleteHandler@i2c1_master_example$F180         text70       0062B
_sprintf                                                  text1        0059A
_vfpfcnvrt                                                text3        0003B
_vfprintf                                                 text2        005B8
_width                                                    bssBANK1     000DE
_wr1RegCompleteHandler                                    text78       0072C
_wr1RegCompleteHandler@i2c1_master_example$F163           text71       006BA
_wr2RegCompleteHandler                                    text75       006F3
_wr2RegCompleteHandler@i2c1_master_example$F169           text79       0073F
abs@a                                                     cstackBANK0  00026
btemp                                                     (abs)        0007E
clear_ram0                                                clrtext      007ED
end_of_initialization                                     cinit        00037
fputc@c                                                   cstackBANK0  00020
fputc@fp                                                  cstackBANK0  00022
i1I2C1_SetBuffer@buffer                                   cstackCOMMON 00070
i1I2C1_SetBuffer@bufferSize                               cstackCOMMON 00072
i1I2C1_SetCallback@cb                                     cstackCOMMON 00070
i1I2C1_SetCallback@idx                                    cstackCOMMON 00075
i1I2C1_SetCallback@ptr                                    cstackCOMMON 00072
i1_I2C1_MasterClearIrq                                    text44       00FA1
i1_I2C1_SetBuffer                                         text80       00774
i1_I2C1_SetCallback                                       text82       0040A
i2c_writeNBytes@address                                   cstackBANK0  0002D
i2c_writeNBytes@data                                      cstackBANK0  0002A
i2c_writeNBytes@len                                       cstackBANK0  0002B
int$flags                                                 (abs)        0007E
intlevel0                                                 functab      00000
intlevel1                                                 functab      00000
intlevel2                                                 functab      00000
intlevel3                                                 functab      00000
intlevel4                                                 functab      00000
intlevel5                                                 functab      00000
lcd_command@command                                       cstackBANK0  00032
lcd_go@column                                             cstackBANK0  00033
lcd_go@line                                               cstackBANK0  00034
lcd_go@temp                                               cstackBANK0  00035
lcd_writeletter@letter                                    cstackBANK0  00032
lcd_writemessage@column                                   cstackBANK0  00036
lcd_writemessage@line                                     cstackBANK0  00038
lcd_writemessage@message                                  cstackBANK0  00037
main@buffer                                               cstackBANK0  00055
main@valor                                                cstackBANK0  00066
pcf8574_write@data                                        cstackBANK0  0002E
pcf8574_write_wEnable@writeBuffer                         cstackBANK0  0002E
rd1RegCompleteHandler@i2c1_master_example$F146@ptr        cstackCOMMON 00079
rd1RegCompleteHandler@p                                   cstackCOMMON 00079
rd2RegCompleteHandler@i2c1_master_example$F157@ptr        cstackCOMMON 00079
rd2RegCompleteHandler@p                                   cstackCOMMON 00079
rdBlkRegCompleteHandler@i2c1_master_example$F180@ptr      cstackCOMMON 00079
rdBlkRegCompleteHandler@p                                 cstackCOMMON 00079
reset_vec                                                 reset_vec    00000
sprintf@ap                                                cstackBANK0  00047
sprintf@f                                                 cstackBANK0  00048
sprintf@fmt                                               cstackBANK0  00043
sprintf@s                                                 cstackBANK0  00042
start                                                     init         00025
start_initialization                                      cinit        00027
vfpfcnvrt@ap                                              cstackBANK0  0002D
vfpfcnvrt@c                                               cstackBANK0  00039
vfpfcnvrt@convarg                                         cstackBANK0  00035
vfpfcnvrt@cp                                              cstackBANK0  00033
vfpfcnvrt@done                                            cstackBANK0  00032
vfpfcnvrt@fmt                                             cstackBANK0  0002C
vfpfcnvrt@fp                                              cstackBANK0  0002A
vfprintf@ap                                               cstackBANK0  0003E
vfprintf@cfmt                                             cstackBANK0  00040
vfprintf@fmt                                              cstackBANK0  0003C
vfprintf@fp                                               cstackBANK0  0003A
wr1RegCompleteHandler@i2c1_master_example$F163@ptr        cstackCOMMON 00079
wr1RegCompleteHandler@p                                   cstackCOMMON 00079
wr2RegCompleteHandler@i2c1_master_example$F169@ptr        cstackCOMMON 00079
wr2RegCompleteHandler@p                                   cstackCOMMON 00079
wtemp0                                                    (abs)        0007E


MODULE INFORMATION

Module		Function		Class		Link	Load	Size
/opt/microchip/xc8/v3.00/pic/sources/c99/common/awdiv.c
		___awdiv       		CODE           	0128	0000	92

/opt/microchip/xc8/v3.00/pic/sources/c99/common/awdiv.c estimated size: 92

mcc_generated_files/examples/i2c1_master_example.c
		_rdBlkRegCompleteHandler@i2c1_master_example$F180		CODE           	062B	0000	27
		_rd1RegCompleteHandler@i2c1_master_example$F146		CODE           	06E0	0000	19
		_rd2RegCompleteHandler@i2c1_master_example$F157		CODE           	06CD	0000	19
		_wr1RegCompleteHandler@i2c1_master_example$F163		CODE           	06BA	0000	19
		_wr2RegCompleteHandler@i2c1_master_example$F169		CODE           	073F	0000	19

mcc_generated_files/examples/i2c1_master_example.c estimated size: 103

mcc_generated_files/i2c1_master.c
		_I2C1_DO_SEND_RESTART		CODE           	0FD3	0000	5
		_I2C1_DO_TX_EMPTY		CODE           	04CF	0000	45
		_I2C1_DO_SEND_RESTART_READ		CODE           	0FC9	0000	5
		_I2C1_CallbackReturnStop		CODE           	0F90	0000	2
		_I2C1_DO_RX    		CODE           	0353	0000	68
		_I2C1_DO_TX    		CODE           	01DD	0000	83
		_I2C1_SetAddressNackCallback		CODE           	079D	0000	12
		_I2C1_DO_IDLE  		CODE           	0FC4	0000	5
		_I2C1_MasterOpen		CODE           	0790	0000	13
		_I2C1_DO_RCEN  		CODE           	07E6	0000	7
		_I2C1_MasterSendTxData		CODE           	0FBF	0000	5
		_I2C1_MasterStop		CODE           	0F95	0000	3
		_I2C1_CallbackReturnReset		CODE           	0002	0000	2
		_I2C1_DO_RESET 		CODE           	0FEC	0000	5
		_I2C1_MasterStartRx		CODE           	0F98	0000	3
		_I2C1_DO_RX_ACK		CODE           	0FDD	0000	5
		_I2C1_MasterSendNack		CODE           	0FB3	0000	4
		_I2C1_DO_RX_NACK_RESTART		CODE           	0FE7	0000	5
		_I2C1_MasterDisableIrq		CODE           	0FAA	0000	3
		_I2C1_MasterOperation		CODE           	05D6	0000	30
		_I2C1_SetCallback		CODE           	03D1	0000	57
		_I2C1_MasterEnableRestart		CODE           	0F92	0000	3
		_I2C1_Open     		CODE           	02C8	0000	70
		_I2C1_DO_ADDRESS_NACK		CODE           	0526	0000	41
		_I2C1_SetBuffer		CODE           	0679	0000	23
		_I2C1_DO_SEND_RESTART_WRITE		CODE           	0FCE	0000	5
		_I2C1_MasterClose		CODE           	0FA7	0000	3
		_I2C1_MasterWrite		CODE           	0FF6	0000	5
		_I2C1_Initialize		CODE           	07BD	0000	9
		_I2C1_Close    		CODE           	0610	0000	27
		_I2C1_MasterIsNack		CODE           	07F9	0000	6
		_I2C1_MasterStart		CODE           	0FAD	0000	3
		_I2C1_DO_SEND_ADR_WRITE		CODE           	07D7	0000	8
		_I2C1_MasterClearIrq		CODE           	0FA4	0000	3
		_I2C1_SetDataCompleteCallback		CODE           	07A9	0000	11
		_I2C1_DO_SEND_STOP		CODE           	0FD8	0000	5
		_I2C1_MasterSendAck		CODE           	0FB7	0000	4
		_I2C1_MasterFsm		CODE           	054F	0000	40
		_I2C1_MasterIsr		CODE           	0FBB	0000	4
		_I2C1_MasterGetRxData		CODE           	0F9B	0000	3
		_I2C1_SetInterruptHandler		CODE           	07F3	0000	6
		_I2C1_MasterSetIrq		CODE           	0F9E	0000	3
		_I2C1_DO_SEND_ADR_READ		CODE           	07C6	0000	9
		_I2C1_MasterEnableIrq		CODE           	0FB0	0000	3
		_I2C1_DO_RX_NACK_STOP		CODE           	0FE2	0000	5

mcc_generated_files/i2c1_master.c estimated size: 666

mcc_generated_files/interrupt_manager.c
		_INTERRUPT_InterruptManager		CODE           	0004	0000	33

mcc_generated_files/interrupt_manager.c estimated size: 33

pcf8574.c
		_pcf8574_write 		CODE           	0783	0000	13

pcf8574.c estimated size: 13

mcc_generated_files/pin_manager.c
		_PIN_MANAGER_Initialize		CODE           	030E	0000	69

mcc_generated_files/pin_manager.c estimated size: 69

/opt/microchip/xc8/v3.00/pic/sources/c99/common/doprnt.c
		_vfpfcnvrt     		CODE           	003B	0000	237
		_vfprintf      		CODE           	05B8	0000	30

/opt/microchip/xc8/v3.00/pic/sources/c99/common/doprnt.c estimated size: 267

mcc_generated_files/drivers/i2c_simple_master.c
		_wr1RegCompleteHandler		CODE           	072C	0000	19
		_wr2RegCompleteHandler		CODE           	06F3	0000	19
		_i2c_writeNBytes		CODE           	04A2	0000	45
		_rdBlkRegCompleteHandler		CODE           	0646	0000	27
		_rd1RegCompleteHandler		CODE           	0719	0000	19
		_rd2RegCompleteHandler		CODE           	0706	0000	19

mcc_generated_files/drivers/i2c_simple_master.c estimated size: 148

/opt/microchip/xc8/v3.00/pic/sources/c99/common/nf_fputc.c
		_fputc         		CODE           	0184	0000	89

/opt/microchip/xc8/v3.00/pic/sources/c99/common/nf_fputc.c estimated size: 89

shared
		i1_I2C1_SetBuffer		CODE           	0774	0000	15
		i1_I2C1_SetCallback		CODE           	040A	0000	56
		__initialization		CODE           	0027	0000	16
		_i2c1_fsmStateTable		STRCODE        	0577	0000	32
		i1_I2C1_MasterClearIrq		CODE           	0FA1	0000	3

shared estimated size: 122

mcc_generated_files/mcc.c
		_PMD_Initialize		CODE           	07CF	0000	8
		_OSCILLATOR_Initialize		CODE           	07B4	0000	9
		_SYSTEM_Initialize		CODE           	0764	0000	16

mcc_generated_files/mcc.c estimated size: 33

/opt/microchip/xc8/v3.00/pic/sources/c99/common/awmod.c
		___awmod       		CODE           	0230	0000	82

/opt/microchip/xc8/v3.00/pic/sources/c99/common/awmod.c estimated size: 82

/opt/microchip/xc8/v3.00/pic/sources/c99/common/putch.c
		_putch         		CODE           	07FF	0000	1

/opt/microchip/xc8/v3.00/pic/sources/c99/common/putch.c estimated size: 1

seri_lcd.c
		_lcd_busy      		CODE           	0FF1	0000	5
		_lcd_command   		CODE           	0442	0000	50
		_lcd_delete    		CODE           	0FFB	0000	5
		_lcd_start     		CODE           	0397	0000	58
		_lcd_writeletter		CODE           	0474	0000	46
		_pcf8574_write_wEnable		CODE           	06A6	0000	20
		_lcd_go        		CODE           	04FC	0000	42
		_lcd_writemessage		CODE           	05F4	0000	28
		_lcd_lighting_ac		CODE           	07DF	0000	7

seri_lcd.c estimated size: 261

mcc_generated_files/adcc.c
		_ADCC_GetSingleConversion		CODE           	0690	0000	22
		_ADCC_Initialize		CODE           	0661	0000	24

mcc_generated_files/adcc.c estimated size: 46

main.c
		_main          		CODE           	0282	0000	70

main.c estimated size: 70

/opt/microchip/xc8/v3.00/pic/sources/c99/common/abs.c
		_abs           		CODE           	0752	0000	18

/opt/microchip/xc8/v3.00/pic/sources/c99/common/abs.c estimated size: 18

/opt/microchip/xc8/v3.00/pic/sources/c99/common/nf_sprintf.c
		_sprintf       		CODE           	059A	0000	30

/opt/microchip/xc8/v3.00/pic/sources/c99/common/nf_sprintf.c estimated size: 30

